; Function Attrs: nounwind uwtable
define internal void @Xxo_dealloc(ptr noundef %0) #0 {
  tail call void @PyObject_GC_UnTrack(ptr noundef %0) #5
  %2 = getelementptr inbounds nuw i8, ptr %0, i64 16
  %3 = load ptr, ptr %2, align 8, !tbaa !10
  %.not.i = icmp eq ptr %3, null
  br i1 %.not.i, label %Xxo_finalize.exit, label %4

4:                                                ; preds = %1
  store ptr null, ptr %2, align 8, !tbaa !10
  tail call void @_Py_DecRef(ptr noundef nonnull %3) #5
  br label %Xxo_finalize.exit

Xxo_finalize.exit:                                ; preds = %1, %4
  %5 = getelementptr i8, ptr %0, i64 8
  %.val = load ptr, ptr %5, align 8, !tbaa !17
  %6 = tail call ptr @PyType_GetSlot(ptr noundef %.val, i32 noundef 74) #5
  tail call void %6(ptr noundef nonnull %0) #5
  tail call void @_Py_DecRef(ptr noundef %.val) #5
  ret void
}